; Function Attrs: mustprogress uwtable
define hidden void @_ZN3sat4ddfw6reinitEv(ptr noundef nonnull align 8 dereferenceable(434) %0) local_unnamed_addr #4 align 2 {
  %2 = getelementptr inbounds nuw i8, ptr %0, i64 80
  br label %3

3:                                                ; preds = %11, %1
  %indvars.iv.i = phi i64 [ %indvars.iv.next.i, %11 ], [ 0, %1 ]
  %4 = load ptr, ptr %2, align 8, !tbaa !37
  %5 = icmp eq ptr %4, null
  br i1 %5, label %_ZNK6vectorIN3sat7literalELb0EjE4sizeEv.exit.i, label %6

6:                                                ; preds = %3
  %7 = getelementptr inbounds i8, ptr %4, i64 -4
  %8 = load i32, ptr %7, align 4, !tbaa !26
  %9 = zext i32 %8 to i64
  br label %_ZNK6vectorIN3sat7literalELb0EjE4sizeEv.exit.i

_ZNK6vectorIN3sat7literalELb0EjE4sizeEv.exit.i:   ; preds = %6, %3
  %.0.i.i = phi i64 [ %9, %6 ], [ 0, %3 ]
  %10 = icmp samesign ult i64 %indvars.iv.i, %.0.i.i
  br i1 %10, label %11, label %_ZN3sat4ddfw15add_assumptionsEv.exit

11:                                               ; preds = %_ZNK6vectorIN3sat7literalELb0EjE4sizeEv.exit.i
  %12 = getelementptr inbounds nuw %"class.sat::literal", ptr %4, i64 %indvars.iv.i
  tail call void @_ZN3sat4ddfw3addEjPKNS_7literalE(ptr noundef nonnull align 8 dereferenceable(434) %0, i32 noundef 1, ptr noundef %12)
  %indvars.iv.next.i = add nuw nsw i64 %indvars.iv.i, 1
  br label %3, !llvm.loop !88

_ZN3sat4ddfw15add_assumptionsEv.exit:             ; preds = %_ZNK6vectorIN3sat7literalELb0EjE4sizeEv.exit.i
  %13 = tail call noundef zeroext i1 @_ZN3sat4ddfw16flatten_use_listEv(ptr noundef nonnull align 8 dereferenceable(434) %0)
  ret void
}